target datalayout = "e-m:e-p270:32:32-p271:32:32-p272:64:64-i64:64-i128:128-f80:128-n8:16:32:64-S128"
target triple = "x86_64-pc-linux-gnu"

%class.VOptionBool = type { i8 }
%class.VTimescale = type { i8 }
%struct.V3ParseBisonYYSType = type { ptr, ptr, i32, %class.VBaseOverride, %union.anon }
%class.VBaseOverride = type { i8 }
%union.anon = type { ptr }
%"class.std::deque.19" = type { %"class.std::_Deque_base.20" }
%"class.std::_Deque_base.20" = type { %"struct.std::_Deque_base<std::__cxx11::basic_string<char>, std::allocator<std::__cxx11::basic_string<char>>>::_Deque_impl" }
%"struct.std::_Deque_base<std::__cxx11::basic_string<char>, std::allocator<std::__cxx11::basic_string<char>>>::_Deque_impl" = type { %"struct.std::_Deque_base<std::__cxx11::basic_string<char>, std::allocator<std::__cxx11::basic_string<char>>>::_Deque_impl_data" }
%"struct.std::_Deque_base<std::__cxx11::basic_string<char>, std::allocator<std::__cxx11::basic_string<char>>>::_Deque_impl_data" = type { ptr, i64, %"struct.std::_Deque_iterator.24", %"struct.std::_Deque_iterator.24" }
%"struct.std::_Deque_iterator.24" = type { ptr, ptr, ptr, ptr }
%"struct.std::_Deque_iterator.6" = type { ptr, ptr, ptr, ptr }
%"struct.std::_Deque_iterator.12" = type { ptr, ptr, ptr, ptr }
%class.V3ParseImp = type <{ ptr, ptr, ptr, ptr, ptr, ptr, i8, [3 x i8], i32, i32, %class.VOptionBool, [3 x i8], i32, i8, [3 x i8], %struct.V3ParseBisonYYSType, %"class.std::deque", %"class.std::deque.1", %"class.std::deque.7", %"class.std::deque.13", %"class.std::deque.19", i64, ptr, %class.VTimescale, [7 x i8] }>
%"class.std::deque" = type { %"class.std::_Deque_base" }
%"class.std::_Deque_base" = type { %"struct.std::_Deque_base<V3ParseBisonYYSType, std::allocator<V3ParseBisonYYSType>>::_Deque_impl" }
%"struct.std::_Deque_base<V3ParseBisonYYSType, std::allocator<V3ParseBisonYYSType>>::_Deque_impl" = type { %"struct.std::_Deque_base<V3ParseBisonYYSType, std::allocator<V3ParseBisonYYSType>>::_Deque_impl_data" }
%"struct.std::_Deque_base<V3ParseBisonYYSType, std::allocator<V3ParseBisonYYSType>>::_Deque_impl_data" = type { ptr, i64, %"struct.std::_Deque_iterator", %"struct.std::_Deque_iterator" }
%"struct.std::_Deque_iterator" = type { ptr, ptr, ptr, ptr }
%"class.std::deque.1" = type { %"class.std::_Deque_base.2" }
%"class.std::_Deque_base.2" = type { %"struct.std::_Deque_base<std::__cxx11::basic_string<char> *, std::allocator<std::__cxx11::basic_string<char> *>>::_Deque_impl" }
%"struct.std::_Deque_base<std::__cxx11::basic_string<char> *, std::allocator<std::__cxx11::basic_string<char> *>>::_Deque_impl" = type { %"struct.std::_Deque_base<std::__cxx11::basic_string<char> *, std::allocator<std::__cxx11::basic_string<char> *>>::_Deque_impl_data" }
%"struct.std::_Deque_base<std::__cxx11::basic_string<char> *, std::allocator<std::__cxx11::basic_string<char> *>>::_Deque_impl_data" = type { ptr, i64, %"struct.std::_Deque_iterator.6", %"struct.std::_Deque_iterator.6" }
%"class.std::deque.7" = type { %"class.std::_Deque_base.8" }
%"class.std::_Deque_base.8" = type { %"struct.std::_Deque_base<V3Number *, std::allocator<V3Number *>>::_Deque_impl" }
%"struct.std::_Deque_base<V3Number *, std::allocator<V3Number *>>::_Deque_impl" = type { %"struct.std::_Deque_base<V3Number *, std::allocator<V3Number *>>::_Deque_impl_data" }
%"struct.std::_Deque_base<V3Number *, std::allocator<V3Number *>>::_Deque_impl_data" = type { ptr, i64, %"struct.std::_Deque_iterator.12", %"struct.std::_Deque_iterator.12" }
%"class.std::deque.13" = type { %"class.std::_Deque_base.14" }
%"class.std::_Deque_base.14" = type { %"struct.std::_Deque_base<FileLine, std::allocator<FileLine>>::_Deque_impl" }
%"struct.std::_Deque_base<FileLine, std::allocator<FileLine>>::_Deque_impl" = type { %"struct.std::_Deque_base<FileLine, std::allocator<FileLine>>::_Deque_impl_data" }
%"struct.std::_Deque_base<FileLine, std::allocator<FileLine>>::_Deque_impl_data" = type { ptr, i64, %"struct.std::_Deque_iterator.18", %"struct.std::_Deque_iterator.18" }
%"struct.std::_Deque_iterator.18" = type { ptr, ptr, ptr, ptr }

@yylval = external global %struct.V3ParseBisonYYSType, align 8

; Function Attrs: mustprogress nounwind uwtable
define linkonce_odr dso_local void @_ZNSt15__new_allocatorI19V3ParseBisonYYSTypeE9constructIS0_JRKS0_EEEvPT_DpOT0_(ptr noundef nonnull align 1 dereferenceable(1) %0, ptr noundef %1, ptr noundef nonnull align 8 dereferenceable(32) %2) #4 comdat align 2 {
  %4 = alloca ptr, align 8
  %5 = alloca ptr, align 8
  %6 = alloca ptr, align 8
  store ptr %0, ptr %4, align 8, !tbaa !899
  store ptr %1, ptr %5, align 8, !tbaa !262
  store ptr %2, ptr %6, align 8, !tbaa !262
  %7 = load ptr, ptr %5, align 8, !tbaa !262
  %8 = load ptr, ptr %6, align 8, !tbaa !262
  call void @llvm.memcpy.p0.p0.i64(ptr align 8 %7, ptr align 8 %8, i64 32, i1 false), !tbaa.struct !274
  ret void
}

; Function Attrs: mustprogress nounwind uwtable
define linkonce_odr dso_local void @_ZNSt16allocator_traitsISaI19V3ParseBisonYYSTypeEE9constructIS0_JRKS0_EEEvRS1_PT_DpOT0_(ptr noundef nonnull align 1 dereferenceable(1) %0, ptr noundef %1, ptr noundef nonnull align 8 dereferenceable(32) %2) #4 comdat align 2 {
  %4 = alloca ptr, align 8
  %5 = alloca ptr, align 8
  %6 = alloca ptr, align 8
  store ptr %0, ptr %4, align 8, !tbaa !901
  store ptr %1, ptr %5, align 8, !tbaa !262
  store ptr %2, ptr %6, align 8, !tbaa !262
  %7 = load ptr, ptr %4, align 8, !tbaa !901
  %8 = load ptr, ptr %5, align 8, !tbaa !262
  %9 = load ptr, ptr %6, align 8, !tbaa !262
  call void @_ZNSt15__new_allocatorI19V3ParseBisonYYSTypeE9constructIS0_JRKS0_EEEvPT_DpOT0_(ptr noundef nonnull align 1 dereferenceable(1) %7, ptr noundef %8, ptr noundef nonnull align 8 dereferenceable(32) %9) #3
  ret void
}

; Function Attrs: mustprogress uwtable
define linkonce_odr dso_local void @_ZNSt5dequeI19V3ParseBisonYYSTypeSaIS0_EE9push_backERKS0_(ptr noundef nonnull align 8 dereferenceable(80) %0, ptr noundef nonnull align 8 dereferenceable(32) %1) #8 comdat align 2 {
  %3 = alloca ptr, align 8
  %4 = alloca ptr, align 8
  store ptr %0, ptr %3, align 8, !tbaa !98
  store ptr %1, ptr %4, align 8, !tbaa !262
  %5 = load ptr, ptr %3, align 8
  %6 = getelementptr inbounds nuw %"class.std::_Deque_base", ptr %5, i32 0, i32 0
  %7 = getelementptr inbounds nuw %"struct.std::_Deque_base<V3ParseBisonYYSType, std::allocator<V3ParseBisonYYSType>>::_Deque_impl_data", ptr %6, i32 0, i32 3
  %8 = getelementptr inbounds nuw %"struct.std::_Deque_iterator", ptr %7, i32 0, i32 0
  %9 = load ptr, ptr %8, align 8, !tbaa !263
  %10 = getelementptr inbounds nuw %"class.std::_Deque_base", ptr %5, i32 0, i32 0
  %11 = getelementptr inbounds nuw %"struct.std::_Deque_base<V3ParseBisonYYSType, std::allocator<V3ParseBisonYYSType>>::_Deque_impl_data", ptr %10, i32 0, i32 3
  %12 = getelementptr inbounds nuw %"struct.std::_Deque_iterator", ptr %11, i32 0, i32 2
  %13 = load ptr, ptr %12, align 8, !tbaa !264
  %14 = getelementptr inbounds %struct.V3ParseBisonYYSType, ptr %13, i64 -1
  %15 = icmp ne ptr %9, %14
  br i1 %15, label %16, label %28

16:                                               ; preds = %2
  %17 = getelementptr inbounds nuw %"class.std::_Deque_base", ptr %5, i32 0, i32 0
  %18 = getelementptr inbounds nuw %"class.std::_Deque_base", ptr %5, i32 0, i32 0
  %19 = getelementptr inbounds nuw %"struct.std::_Deque_base<V3ParseBisonYYSType, std::allocator<V3ParseBisonYYSType>>::_Deque_impl_data", ptr %18, i32 0, i32 3
  %20 = getelementptr inbounds nuw %"struct.std::_Deque_iterator", ptr %19, i32 0, i32 0
  %21 = load ptr, ptr %20, align 8, !tbaa !263
  %22 = load ptr, ptr %4, align 8, !tbaa !262
  call void @_ZNSt16allocator_traitsISaI19V3ParseBisonYYSTypeEE9constructIS0_JRKS0_EEEvRS1_PT_DpOT0_(ptr noundef nonnull align 1 dereferenceable(1) %17, ptr noundef %21, ptr noundef nonnull align 8 dereferenceable(32) %22) #3
  %23 = getelementptr inbounds nuw %"class.std::_Deque_base", ptr %5, i32 0, i32 0
  %24 = getelementptr inbounds nuw %"struct.std::_Deque_base<V3ParseBisonYYSType, std::allocator<V3ParseBisonYYSType>>::_Deque_impl_data", ptr %23, i32 0, i32 3
  %25 = getelementptr inbounds nuw %"struct.std::_Deque_iterator", ptr %24, i32 0, i32 0
  %26 = load ptr, ptr %25, align 8, !tbaa !263
  %27 = getelementptr inbounds nuw %struct.V3ParseBisonYYSType, ptr %26, i32 1
  store ptr %27, ptr %25, align 8, !tbaa !263
  br label %30

28:                                               ; preds = %2
  %29 = load ptr, ptr %4, align 8, !tbaa !262
  call void @_ZNSt5dequeI19V3ParseBisonYYSTypeSaIS0_EE16_M_push_back_auxIJRKS0_EEEvDpOT_(ptr noundef nonnull align 8 dereferenceable(80) %5, ptr noundef nonnull align 8 dereferenceable(32) %29)
  br label %30

30:                                               ; preds = %28, %16
  ret void
}

; Function Attrs: mustprogress uwtable
define dso_local void @_ZN10V3ParseImp9tokenPullEv(ptr noundef nonnull align 8 dereferenceable(528) %0) #8 align 2 {
  %2 = alloca ptr, align 8
  store ptr %0, ptr %2, align 8, !tbaa !4
  %3 = load ptr, ptr %2, align 8
  call void @_ZN10V3ParseImp12yylexReadTokEv(ptr noundef nonnull align 8 dereferenceable(528) %3)
  %4 = getelementptr inbounds nuw %class.V3ParseImp, ptr %3, i32 0, i32 16
  call void @_ZNSt5dequeI19V3ParseBisonYYSTypeSaIS0_EE9push_backERKS0_(ptr noundef nonnull align 8 dereferenceable(80) %4, ptr noundef nonnull align 8 dereferenceable(32) @yylval)
  ret void
}