; Function Attrs: mustprogress uwtable
define dso_local void @_ZN10V3ParseImp9tokenPullEv(ptr noundef nonnull align 8 dereferenceable(528) %0) #8 align 2 {
  tail call void @_ZN10V3ParseImp12yylexReadTokEv(ptr noundef nonnull align 8 dereferenceable(528) %0)
  %2 = getelementptr inbounds nuw i8, ptr %0, i64 152
  %3 = load ptr, ptr %2, align 8, !tbaa !435
  %4 = getelementptr inbounds nuw i8, ptr %0, i64 168
  %5 = load ptr, ptr %4, align 8, !tbaa !436
  %6 = getelementptr inbounds i8, ptr %5, i64 -32
  %.not.i = icmp eq ptr %3, %6
  br i1 %.not.i, label %10, label %7

7:                                                ; preds = %1
  tail call void @llvm.memcpy.p0.p0.i64(ptr noundef nonnull align 8 dereferenceable(32) %3, ptr noundef nonnull align 8 dereferenceable(32) @yylval, i64 32, i1 false), !tbaa.struct !437
  %8 = load ptr, ptr %2, align 8, !tbaa !435
  %9 = getelementptr inbounds nuw i8, ptr %8, i64 32
  store ptr %9, ptr %2, align 8, !tbaa !435
  br label %_ZNSt5dequeI19V3ParseBisonYYSTypeSaIS0_EE9push_backERKS0_.exit

10:                                               ; preds = %1
  %11 = getelementptr inbounds nuw i8, ptr %0, i64 104
  tail call void @_ZNSt5dequeI19V3ParseBisonYYSTypeSaIS0_EE16_M_push_back_auxIJRKS0_EEEvDpOT_(ptr noundef nonnull align 8 dereferenceable(80) %11, ptr noundef nonnull align 8 dereferenceable(32) @yylval)
  br label %_ZNSt5dequeI19V3ParseBisonYYSTypeSaIS0_EE9push_backERKS0_.exit

_ZNSt5dequeI19V3ParseBisonYYSTypeSaIS0_EE9push_backERKS0_.exit: ; preds = %7, %10
  ret void
}